target datalayout = "e-m:e-p270:32:32-p271:32:32-p272:64:64-i64:64-i128:128-f80:128-n8:16:32:64-S128"
target triple = "x86_64-pc-linux-gnu"

; Function Attrs: nounwind sspstrong uwtable
define internal void @tcg_gen_rotrv_mod_vec(i32 noundef %0, ptr noundef %1, ptr noundef %2, ptr noundef %3) #0 {
  %5 = alloca i32, align 4
  %6 = alloca ptr, align 8
  %7 = alloca ptr, align 8
  %8 = alloca ptr, align 8
  %9 = alloca ptr, align 8
  %10 = alloca ptr, align 8
  store i32 %0, ptr %5, align 4
  store ptr %1, ptr %6, align 8
  store ptr %2, ptr %7, align 8
  store ptr %3, ptr %8, align 8
  call void @llvm.lifetime.start.p0(i64 8, ptr %9) #10
  %11 = load ptr, ptr %6, align 8
  %12 = call ptr @tcg_temp_new_vec_matching(ptr noundef %11)
  store ptr %12, ptr %9, align 8
  call void @llvm.lifetime.start.p0(i64 8, ptr %10) #10
  %13 = load ptr, ptr %6, align 8
  %14 = load i32, ptr %5, align 4
  %15 = load i32, ptr %5, align 4
  %16 = shl i32 8, %15
  %17 = sub i32 %16, 1
  %18 = sext i32 %17 to i64
  %19 = call ptr @tcg_constant_vec_matching(ptr noundef %13, i32 noundef %14, i64 noundef %18)
  store ptr %19, ptr %10, align 8
  %20 = load i32, ptr %5, align 4
  %21 = load ptr, ptr %9, align 8
  %22 = load ptr, ptr %8, align 8
  %23 = load ptr, ptr %10, align 8
  call void @tcg_gen_and_vec(i32 noundef %20, ptr noundef %21, ptr noundef %22, ptr noundef %23)
  %24 = load i32, ptr %5, align 4
  %25 = load ptr, ptr %6, align 8
  %26 = load ptr, ptr %7, align 8
  %27 = load ptr, ptr %9, align 8
  call void @tcg_gen_rotrv_vec(i32 noundef %24, ptr noundef %25, ptr noundef %26, ptr noundef %27)
  %28 = load ptr, ptr %9, align 8
  call void @tcg_temp_free_vec(ptr noundef %28)
  call void @llvm.lifetime.end.p0(i64 8, ptr %10) #10
  call void @llvm.lifetime.end.p0(i64 8, ptr %9) #10
  ret void
}